; Function Attrs: nounwind uwtable
define noundef zeroext i1 @ecpg_do(i32 noundef %0, i32 noundef %1, i32 noundef %2, ptr noundef %3, i1 noundef zeroext %4, i32 noundef %5, ptr noundef %6, ptr noundef captures(none) %7) local_unnamed_addr #0 {
  %9 = alloca ptr, align 8
  call void @llvm.lifetime.start.p0(i64 8, ptr nonnull %9) #14
  %10 = call zeroext i1 @ecpg_do_prologue(i32 noundef %0, i32 noundef %1, i32 noundef %2, ptr noundef %3, i1 noundef zeroext %4, i32 noundef %5, ptr noundef %6, ptr noundef %7, ptr noundef nonnull %9)
  %.pre = load ptr, ptr %9, align 8
  br i1 %10, label %11, label %19

11:                                               ; preds = %8
  %12 = tail call zeroext i1 @ecpg_build_params(ptr noundef %.pre)
  br i1 %12, label %13, label %19

13:                                               ; preds = %11
  %14 = tail call zeroext i1 @ecpg_autostart_transaction(ptr noundef %.pre)
  br i1 %14, label %15, label %19

15:                                               ; preds = %13
  %16 = tail call zeroext i1 @ecpg_execute(ptr noundef %.pre)
  br i1 %16, label %17, label %19

17:                                               ; preds = %15
  %18 = tail call zeroext i1 @ecpg_process_output(ptr noundef %.pre, i1 noundef zeroext true)
  br i1 %18, label %20, label %19

19:                                               ; preds = %17, %15, %13, %11, %8
  br label %20

20:                                               ; preds = %17, %19
  %.0 = phi i1 [ false, %19 ], [ true, %17 ]
  tail call void @ecpg_do_epilogue(ptr noundef %.pre)
  call void @llvm.lifetime.end.p0(i64 8, ptr nonnull %9) #14
  ret i1 %.0
}